; Function Attrs: mustprogress uwtable
define noundef ptr @Z3_to_app(ptr noundef %c, ptr noundef returned %a) local_unnamed_addr #3 personality ptr @__gxx_personality_v0 {
entry:
  %0 = atomicrmw xchg ptr @g_z3_log_enabled, i8 0 seq_cst, align 1
  %1 = and i8 %0, 1
  %tobool.i.not = icmp eq i8 %1, 0
  br i1 %tobool.i.not, label %if.end11, label %if.then

if.then:                                          ; preds = %entry
  invoke void @_Z13log_Z3_to_appP11_Z3_contextP7_Z3_ast(ptr noundef %c, ptr noundef %a)
          to label %if.then9 unwind label %_ZN10z3_log_ctxD2Ev.exit

_ZN10z3_log_ctxD2Ev.exit:                         ; preds = %if.then9, %if.then
  %2 = landingpad { ptr, i32 }
          cleanup
  store atomic i8 1, ptr @g_z3_log_enabled seq_cst, align 1
  resume { ptr, i32 } %2

if.then9:                                         ; preds = %if.then
  %m_error_code.i11 = getelementptr inbounds i8, ptr %c, i64 1560
  store i32 0, ptr %m_error_code.i11, align 8
  invoke void @_Z4SetRPv(ptr noundef %a)
          to label %if.then.i6 unwind label %_ZN10z3_log_ctxD2Ev.exit

if.end11:                                         ; preds = %entry
  %m_error_code.i = getelementptr inbounds i8, ptr %c, i64 1560
  store i32 0, ptr %m_error_code.i, align 8
  br label %_ZN10z3_log_ctxD2Ev.exit7

if.then.i6:                                       ; preds = %if.then9
  store atomic i8 1, ptr @g_z3_log_enabled seq_cst, align 1
  br label %_ZN10z3_log_ctxD2Ev.exit7

_ZN10z3_log_ctxD2Ev.exit7:                        ; preds = %if.end11, %if.then.i6
  ret ptr %a
}